target datalayout = "e-m:e-p270:32:32-p271:32:32-p272:64:64-i64:64-i128:128-f80:128-n8:16:32:64-S128"
target triple = "x86_64-pc-linux-gnu"

%struct.mi_subproc_s = type { i64, i64, %union.pthread_mutex_t, %union.pthread_mutex_t, ptr, ptr, %struct.mi_memid_s }
%union.pthread_mutex_t = type { %struct.__pthread_mutex_s }
%struct.__pthread_mutex_s = type { i32, i32, i32, i32, i32, i16, i16, %struct.__pthread_internal_list }
%struct.__pthread_internal_list = type { ptr, ptr }
%struct.mi_memid_s = type { %union.anon, i8, i8, i8, i32 }
%union.anon = type { %struct.mi_memid_os_info }
%struct.mi_memid_os_info = type { ptr, i64 }

@mi_subproc_default = internal global %struct.mi_subproc_s zeroinitializer, align 64
@.str.7 = private unnamed_addr constant [41 x i8] c"internal error: lock cannot be acquired\0A\00", align 1

; Function Attrs: inlinehint nounwind uwtable
define internal void @mi_lock_done(ptr noundef %0) #1 {
  %2 = alloca ptr, align 8
  store ptr %0, ptr %2, align 8, !tbaa !27
  %3 = load ptr, ptr %2, align 8, !tbaa !27
  %4 = call i32 @pthread_mutex_destroy(ptr noundef %3) #13
  ret void
}

; Function Attrs: inlinehint nounwind uwtable
define internal void @mi_lock_release(ptr noundef %0) #1 {
  %2 = alloca ptr, align 8
  store ptr %0, ptr %2, align 8, !tbaa !27
  %3 = load ptr, ptr %2, align 8, !tbaa !27
  %4 = call i32 @pthread_mutex_unlock(ptr noundef %3) #13
  ret void
}

; Function Attrs: inlinehint nounwind uwtable
define internal void @mi_lock_acquire(ptr noundef %0) #1 {
  %2 = alloca ptr, align 8
  %3 = alloca i32, align 4
  store ptr %0, ptr %2, align 8, !tbaa !27
  call void @llvm.lifetime.start.p0(i64 4, ptr %3) #12
  %4 = load ptr, ptr %2, align 8, !tbaa !27
  %5 = call i32 @pthread_mutex_lock(ptr noundef %4) #13
  store i32 %5, ptr %3, align 4, !tbaa !22
  %6 = load i32, ptr %3, align 4, !tbaa !22
  %7 = icmp ne i32 %6, 0
  br i1 %7, label %8, label %10

8:                                                ; preds = %1
  %9 = load i32, ptr %3, align 4, !tbaa !22
  call void (i32, ptr, ...) @_mi_error_message(i32 noundef %9, ptr noundef @.str.7) #11
  br label %10

10:                                               ; preds = %8, %1
  call void @llvm.lifetime.end.p0(i64 4, ptr %3) #12
  ret void
}

; Function Attrs: nounwind uwtable
define hidden ptr @_mi_subproc_from_id(ptr noundef %0) #0 {
  %2 = alloca ptr, align 8
  store ptr %0, ptr %2, align 8, !tbaa !27
  %3 = load ptr, ptr %2, align 8, !tbaa !27
  %4 = icmp eq ptr %3, null
  br i1 %4, label %5, label %6

5:                                                ; preds = %1
  br label %8

6:                                                ; preds = %1
  %7 = load ptr, ptr %2, align 8, !tbaa !27
  br label %8

8:                                                ; preds = %6, %5
  %9 = phi ptr [ @mi_subproc_default, %5 ], [ %7, %6 ]
  ret ptr %9
}

; Function Attrs: nounwind uwtable
define hidden void @mi_subproc_delete(ptr noundef %0) #0 {
  %2 = alloca ptr, align 8
  %3 = alloca ptr, align 8
  %4 = alloca i8, align 1
  %5 = alloca i8, align 1
  %6 = alloca i32, align 4
  store ptr %0, ptr %2, align 8, !tbaa !27
  %7 = load ptr, ptr %2, align 8, !tbaa !27
  %8 = icmp eq ptr %7, null
  br i1 %8, label %9, label %10

9:                                                ; preds = %1
  br label %43

10:                                               ; preds = %1
  call void @llvm.lifetime.start.p0(i64 8, ptr %3) #12
  %11 = load ptr, ptr %2, align 8, !tbaa !27
  %12 = call ptr @_mi_subproc_from_id(ptr noundef %11) #11
  store ptr %12, ptr %3, align 8, !tbaa !17
  call void @llvm.lifetime.start.p0(i64 1, ptr %4) #12
  store i8 0, ptr %4, align 1, !tbaa !21
  call void @llvm.lifetime.start.p0(i64 1, ptr %5) #12
  %13 = load ptr, ptr %3, align 8, !tbaa !17
  %14 = getelementptr inbounds nuw %struct.mi_subproc_s, ptr %13, i32 0, i32 2
  call void @mi_lock_acquire(ptr noundef %14) #11
  store i8 1, ptr %5, align 1, !tbaa !21
  br label %15

15:                                               ; preds = %26, %10
  %16 = load i8, ptr %5, align 1, !tbaa !21, !range !28, !noundef !29
  %17 = trunc i8 %16 to i1
  br i1 %17, label %19, label %18

18:                                               ; preds = %15
  call void @llvm.lifetime.end.p0(i64 1, ptr %5) #12
  br label %29

19:                                               ; preds = %15
  %20 = load ptr, ptr %3, align 8, !tbaa !17
  %21 = getelementptr inbounds nuw %struct.mi_subproc_s, ptr %20, i32 0, i32 4
  %22 = load ptr, ptr %21, align 8, !tbaa !23
  %23 = icmp eq ptr %22, null
  br i1 %23, label %24, label %25

24:                                               ; preds = %19
  store i8 1, ptr %4, align 1, !tbaa !21
  br label %25

25:                                               ; preds = %24, %19
  br label %26

26:                                               ; preds = %25
  %27 = load ptr, ptr %3, align 8, !tbaa !17
  %28 = getelementptr inbounds nuw %struct.mi_subproc_s, ptr %27, i32 0, i32 2
  call void @mi_lock_release(ptr noundef %28) #11
  store i8 0, ptr %5, align 1, !tbaa !21
  br label %15, !llvm.loop !30

29:                                               ; preds = %18
  %30 = load i8, ptr %4, align 1, !tbaa !21, !range !28, !noundef !29
  %31 = trunc i8 %30 to i1
  br i1 %31, label %33, label %32

32:                                               ; preds = %29
  store i32 1, ptr %6, align 4
  br label %41

33:                                               ; preds = %29
  %34 = load ptr, ptr %3, align 8, !tbaa !17
  %35 = getelementptr inbounds nuw %struct.mi_subproc_s, ptr %34, i32 0, i32 2
  call void @mi_lock_done(ptr noundef %35) #11
  %36 = load ptr, ptr %3, align 8, !tbaa !17
  %37 = getelementptr inbounds nuw %struct.mi_subproc_s, ptr %36, i32 0, i32 3
  call void @mi_lock_done(ptr noundef %37) #11
  %38 = load ptr, ptr %3, align 8, !tbaa !17
  %39 = load ptr, ptr %3, align 8, !tbaa !17
  %40 = getelementptr inbounds nuw %struct.mi_subproc_s, ptr %39, i32 0, i32 6
  call void @_mi_arena_meta_free(ptr noundef %38, ptr noundef byval(%struct.mi_memid_s) align 8 %40, i64 noundef 136) #11
  store i32 0, ptr %6, align 4
  br label %41

41:                                               ; preds = %33, %32
  call void @llvm.lifetime.end.p0(i64 1, ptr %4) #12
  call void @llvm.lifetime.end.p0(i64 8, ptr %3) #12
  %42 = load i32, ptr %6, align 4
  switch i32 %42, label %44 [
    i32 0, label %43
    i32 1, label %43
  ]

43:                                               ; preds = %9, %41, %41
  ret void

44:                                               ; preds = %41
  unreachable
}