; Function Attrs: nounwind uwtable
define hidden void @mi_subproc_delete(ptr noundef %0) local_unnamed_addr #1 {
  %2 = icmp eq ptr %0, null
  br i1 %2, label %16, label %3

3:                                                ; preds = %1
  %4 = getelementptr inbounds nuw i8, ptr %0, i64 16
  %5 = tail call i32 @pthread_mutex_lock(ptr noundef nonnull %4) #14
  %.not.i = icmp eq i32 %5, 0
  br i1 %.not.i, label %mi_lock_acquire.exit, label %6

6:                                                ; preds = %3
  tail call void (i32, ptr, ...) @_mi_error_message(i32 noundef %5, ptr noundef nonnull @.str.7) #14
  br label %mi_lock_acquire.exit

mi_lock_acquire.exit:                             ; preds = %3, %6
  %7 = getelementptr inbounds nuw i8, ptr %0, i64 96
  %8 = load ptr, ptr %7, align 8, !tbaa !25
  %9 = icmp eq ptr %8, null
  %10 = tail call i32 @pthread_mutex_unlock(ptr noundef nonnull %4) #14
  br i1 %9, label %11, label %16

11:                                               ; preds = %mi_lock_acquire.exit
  %12 = tail call i32 @pthread_mutex_destroy(ptr noundef nonnull %4) #14
  %13 = getelementptr inbounds nuw i8, ptr %0, i64 56
  %14 = tail call i32 @pthread_mutex_destroy(ptr noundef nonnull %13) #14
  %15 = getelementptr inbounds nuw i8, ptr %0, i64 112
  tail call void @_mi_arena_meta_free(ptr noundef nonnull %0, ptr noundef nonnull byval(%struct.mi_memid_s) align 8 %15, i64 noundef 136) #14
  br label %16

16:                                               ; preds = %11, %mi_lock_acquire.exit, %1
  ret void
}